; Function Attrs: mustprogress uwtable
define void @_ZNK10open_spiel11phantom_ttt15PhantomTTTState17ObservationStringB5cxx11Ei(ptr dead_on_unwind noalias writable sret(%"class.std::__cxx11::basic_string") align 8 %0, ptr nocapture noundef nonnull readonly align 8 dereferenceable(288) %1, i32 noundef %2) unnamed_addr #3 align 2 personality ptr @__gxx_personality_v0 {
  %4 = alloca i32, align 4
  %5 = alloca i32, align 4
  %6 = alloca %"class.std::__cxx11::basic_string", align 8
  %7 = alloca i32, align 4
  %8 = alloca i32, align 4
  %9 = alloca i32, align 4
  %10 = alloca %"class.std::__cxx11::basic_string", align 8
  %11 = alloca i32, align 4
  %12 = alloca %"class.absl::debian2::AlphaNum", align 8
  %13 = alloca %"class.absl::debian2::AlphaNum", align 8
  store i32 %2, ptr %4, align 4
  store i32 0, ptr %5, align 4
  %14 = icmp sgt i32 %2, -1
  br i1 %14, label %19, label %15

15:                                               ; preds = %3
  store i32 243, ptr %7, align 4
  call void @_ZN10open_spiel8internal11SpielStrCatIJRA142_KcRA2_S2_iS6_RA12_S2_RA8_S2_RA4_S2_RiRA7_S2_SD_EEENSt7__cxx1112basic_stringIcSt11char_traitsIcESaIcEEEDpOT_(ptr dead_on_unwind nonnull writable sret(%"class.std::__cxx11::basic_string") align 8 %6, ptr noundef nonnull align 1 dereferenceable(142) @.str.12, ptr noundef nonnull align 1 dereferenceable(2) @.str.13, ptr noundef nonnull align 4 dereferenceable(4) %7, ptr noundef nonnull align 1 dereferenceable(2) @.str.14, ptr noundef nonnull align 1 dereferenceable(12) @.str.23, ptr noundef nonnull align 1 dereferenceable(8) @.str.24, ptr noundef nonnull align 1 dereferenceable(4) @.str.17, ptr noundef nonnull align 4 dereferenceable(4) %4, ptr noundef nonnull align 1 dereferenceable(7) @.str.25, ptr noundef nonnull align 4 dereferenceable(4) %5)
  invoke void @_ZN10open_spiel15SpielFatalErrorERKNSt7__cxx1112basic_stringIcSt11char_traitsIcESaIcEEE(ptr noundef nonnull align 8 dereferenceable(32) %6) #21
          to label %16 unwind label %17

16:                                               ; preds = %15
  unreachable

17:                                               ; preds = %15
  %18 = landingpad { ptr, i32 }
          cleanup
  br label %53

19:                                               ; preds = %3
  store i32 %2, ptr %8, align 4
  %20 = getelementptr inbounds nuw i8, ptr %1, i64 28
  %21 = load i32, ptr %20, align 4
  store i32 %21, ptr %9, align 4
  %22 = icmp slt i32 %2, %21
  br i1 %22, label %27, label %23

23:                                               ; preds = %19
  store i32 244, ptr %11, align 4
  call void @_ZN10open_spiel8internal11SpielStrCatIJRA142_KcRA2_S2_iS6_RA22_S2_RA8_S2_RA4_S2_RiRA18_S2_SD_EEENSt7__cxx1112basic_stringIcSt11char_traitsIcESaIcEEEDpOT_(ptr dead_on_unwind nonnull writable sret(%"class.std::__cxx11::basic_string") align 8 %10, ptr noundef nonnull align 1 dereferenceable(142) @.str.12, ptr noundef nonnull align 1 dereferenceable(2) @.str.13, ptr noundef nonnull align 4 dereferenceable(4) %11, ptr noundef nonnull align 1 dereferenceable(2) @.str.14, ptr noundef nonnull align 1 dereferenceable(22) @.str.26, ptr noundef nonnull align 1 dereferenceable(8) @.str.24, ptr noundef nonnull align 1 dereferenceable(4) @.str.17, ptr noundef nonnull align 4 dereferenceable(4) %8, ptr noundef nonnull align 1 dereferenceable(18) @.str.27, ptr noundef nonnull align 4 dereferenceable(4) %9)
  invoke void @_ZN10open_spiel15SpielFatalErrorERKNSt7__cxx1112basic_stringIcSt11char_traitsIcESaIcEEE(ptr noundef nonnull align 8 dereferenceable(32) %10) #21
          to label %24 unwind label %25

24:                                               ; preds = %23
  unreachable

25:                                               ; preds = %23
  %26 = landingpad { ptr, i32 }
          cleanup
  br label %53

27:                                               ; preds = %19
  tail call void @_ZNK10open_spiel11phantom_ttt15PhantomTTTState12ViewToStringB5cxx11Ei(ptr dead_on_unwind writable sret(%"class.std::__cxx11::basic_string") align 8 %0, ptr noundef nonnull align 8 dereferenceable(288) %1, i32 noundef %2)
  %28 = getelementptr inbounds nuw i8, ptr %1, i64 176
  %29 = load i32, ptr %28, align 8
  %30 = icmp eq i32 %29, 1
  br i1 %30, label %31, label %52

31:                                               ; preds = %27
  store ptr @.str.33, ptr %12, align 8
  %32 = getelementptr inbounds nuw i8, ptr %12, i64 8
  store i64 14, ptr %32, align 8
  %33 = getelementptr inbounds nuw i8, ptr %1, i64 192
  %34 = getelementptr inbounds i8, ptr %1, i64 200
  %35 = load ptr, ptr %34, align 8
  %36 = load ptr, ptr %33, align 8
  %37 = ptrtoint ptr %35 to i64
  %38 = ptrtoint ptr %36 to i64
  %39 = sub i64 %37, %38
  %40 = ashr exact i64 %39, 4
  %41 = getelementptr inbounds nuw i8, ptr %13, i64 16
  %42 = invoke noundef ptr @_ZN4absl7debian216numbers_internal15FastIntToBufferEmPc(i64 noundef %40, ptr noundef nonnull %41)
          to label %.noexc unwind label %50

.noexc:                                           ; preds = %31
  %43 = ptrtoint ptr %42 to i64
  %44 = ptrtoint ptr %41 to i64
  %45 = sub i64 %43, %44
  store ptr %41, ptr %13, align 8
  %46 = icmp sgt i64 %45, -1
  br i1 %46, label %48, label %47

47:                                               ; preds = %.noexc
  call void @llvm.trap()
  unreachable

48:                                               ; preds = %.noexc
  %49 = getelementptr inbounds nuw i8, ptr %13, i64 8
  store i64 %45, ptr %49, align 8
  invoke void @_ZN4absl7debian29StrAppendEPNSt7__cxx1112basic_stringIcSt11char_traitsIcESaIcEEERKNS0_8AlphaNumESA_(ptr noundef %0, ptr noundef nonnull align 8 dereferenceable(48) %12, ptr noundef nonnull align 8 dereferenceable(48) %13)
          to label %52 unwind label %50

50:                                               ; preds = %31, %48
  %51 = landingpad { ptr, i32 }
          cleanup
  br label %53

52:                                               ; preds = %27, %48
  ret void

53:                                               ; preds = %50, %25, %17
  %.sink = phi ptr [ %0, %50 ], [ %10, %25 ], [ %6, %17 ]
  %.pn = phi { ptr, i32 } [ %51, %50 ], [ %26, %25 ], [ %18, %17 ]
  call void @_ZNSt7__cxx1112basic_stringIcSt11char_traitsIcESaIcEED1Ev(ptr noundef nonnull align 8 dereferenceable(32) %.sink) #22
  resume { ptr, i32 } %.pn
}